target datalayout = "e-m:e-p270:32:32-p271:32:32-p272:64:64-i64:64-i128:128-f80:128-n8:16:32:64-S128"
target triple = "x86_64-pc-linux-gnu"

%class.Handle = type { ptr }
%class.Thread = type { %class.ThreadShadow.base, i64, [43 x i64], ptr, ptr, i32, ptr, i64, i64, %class.ThreadLocalAllocBuffer, i64, %class.ThreadHeapSampler, %class.ThreadStatisticalInfo, %class.JfrThreadLocal, ptr, ptr, ptr, ptr, ptr, ptr, i64, i32, i32, ptr, i32, i32, i32, i32, i8, ptr }
%class.ThreadShadow.base = type <{ ptr, ptr, ptr, i32 }>
%class.ThreadLocalAllocBuffer = type <{ ptr, ptr, ptr, ptr, ptr, i64, i64, i64, i64, i32, i32, i32, i32, i64, %class.AdaptiveWeightedAverage, [4 x i8] }>
%class.AdaptiveWeightedAverage = type { float, i32, i32, i8, float }
%class.ThreadHeapSampler = type { i64 }
%class.ThreadStatisticalInfo = type { i64, i64 }
%class.JfrThreadLocal = type <{ ptr, ptr, ptr, ptr, ptr, ptr, ptr, ptr, ptr, ptr, %class.RefCountHandle, i64, i64, i64, i64, i64, i64, i64, i64, i64, i64, i64, i32, i32, i32, i16, i8, i8, i8, i8, i8, [5 x i8] }>
%class.RefCountHandle = type { ptr }
%class.MonitorInfo = type <{ %class.Handle, ptr, %class.Handle, i8, i8, [6 x i8] }>
%class.Arena = type { i8, i8, i64, ptr, ptr, ptr, ptr }

@_ZN6Thread12_thr_currentE = external thread_local global ptr, align 8

; Function Attrs: mustprogress nounwind uwtable
define linkonce_odr hidden noundef i64 @_Z13pointer_deltaPVKvS0_m(ptr noundef %0, ptr noundef %1, i64 noundef %2) #1 comdat {
  %4 = alloca ptr, align 8
  %5 = alloca ptr, align 8
  %6 = alloca i64, align 8
  store ptr %0, ptr %4, align 8
  store ptr %1, ptr %5, align 8
  store i64 %2, ptr %6, align 8
  %7 = load ptr, ptr %4, align 8
  %8 = ptrtoint ptr %7 to i64
  %9 = load ptr, ptr %5, align 8
  %10 = ptrtoint ptr %9 to i64
  %11 = sub i64 %8, %10
  %12 = load i64, ptr %6, align 8
  %13 = udiv i64 %11, %12
  ret i64 %13
}

; Function Attrs: mustprogress nounwind uwtable
define linkonce_odr hidden noundef ptr @_ZN5Arena16internal_amallocEmN17AllocFailStrategy13AllocFailEnumE(ptr noundef nonnull align 8 dereferenceable(48) %0, i64 noundef %1, i32 noundef %2) #1 comdat align 2 {
  %4 = alloca ptr, align 8
  %5 = alloca ptr, align 8
  %6 = alloca i64, align 8
  %7 = alloca i32, align 4
  %8 = alloca ptr, align 8
  store ptr %0, ptr %5, align 8
  store i64 %1, ptr %6, align 8
  store i32 %2, ptr %7, align 4
  %9 = load ptr, ptr %5, align 8
  %10 = getelementptr inbounds %class.Arena, ptr %9, i32 0, i32 6
  %11 = load ptr, ptr %10, align 8
  %12 = getelementptr inbounds %class.Arena, ptr %9, i32 0, i32 5
  %13 = load ptr, ptr %12, align 8
  %14 = call noundef i64 @_Z13pointer_deltaPVKvS0_m(ptr noundef %11, ptr noundef %13, i64 noundef 1)
  %15 = load i64, ptr %6, align 8
  %16 = icmp uge i64 %14, %15
  br i1 %16, label %17, label %25

17:                                               ; preds = %3
  %18 = getelementptr inbounds %class.Arena, ptr %9, i32 0, i32 5
  %19 = load ptr, ptr %18, align 8
  store ptr %19, ptr %8, align 8
  %20 = load i64, ptr %6, align 8
  %21 = getelementptr inbounds %class.Arena, ptr %9, i32 0, i32 5
  %22 = load ptr, ptr %21, align 8
  %23 = getelementptr inbounds i8, ptr %22, i64 %20
  store ptr %23, ptr %21, align 8
  %24 = load ptr, ptr %8, align 8
  store ptr %24, ptr %4, align 8
  br label %29

25:                                               ; preds = %3
  %26 = load i64, ptr %6, align 8
  %27 = load i32, ptr %7, align 4
  %28 = call noundef ptr @_ZN5Arena4growEmN17AllocFailStrategy13AllocFailEnumE(ptr noundef nonnull align 8 dereferenceable(48) %9, i64 noundef %26, i32 noundef %27)
  store ptr %28, ptr %4, align 8
  br label %29

29:                                               ; preds = %25, %17
  %30 = load ptr, ptr %4, align 8
  ret ptr %30
}

; Function Attrs: mustprogress nounwind uwtable
define linkonce_odr hidden noundef ptr @_ZN10HandleArea20real_allocate_handleEP7oopDesc(ptr noundef nonnull align 8 dereferenceable(56) %0, ptr noundef %1) #1 comdat align 2 {
  %3 = alloca ptr, align 8
  %4 = alloca ptr, align 8
  %5 = alloca ptr, align 8
  store ptr %0, ptr %3, align 8
  store ptr %1, ptr %4, align 8
  %6 = load ptr, ptr %3, align 8
  %7 = call noundef ptr @_ZN5Arena16internal_amallocEmN17AllocFailStrategy13AllocFailEnumE(ptr noundef nonnull align 8 dereferenceable(48) %6, i64 noundef 8, i32 noundef 0)
  store ptr %7, ptr %5, align 8
  %8 = load ptr, ptr %4, align 8
  %9 = load ptr, ptr %5, align 8
  store ptr %8, ptr %9, align 8
  %10 = load ptr, ptr %5, align 8
  ret ptr %10
}

; Function Attrs: mustprogress nounwind uwtable
define linkonce_odr hidden noundef ptr @_ZN10HandleArea15allocate_handleEP7oopDesc(ptr noundef nonnull align 8 dereferenceable(56) %0, ptr noundef %1) #1 comdat align 2 {
  %3 = alloca ptr, align 8
  %4 = alloca ptr, align 8
  store ptr %0, ptr %3, align 8
  store ptr %1, ptr %4, align 8
  %5 = load ptr, ptr %3, align 8
  %6 = load ptr, ptr %4, align 8
  %7 = call noundef ptr @_ZN10HandleArea20real_allocate_handleEP7oopDesc(ptr noundef nonnull align 8 dereferenceable(56) %5, ptr noundef %6)
  ret ptr %7
}

; Function Attrs: mustprogress nounwind uwtable
define linkonce_odr hidden noundef ptr @_ZNK6Thread11handle_areaEv(ptr noundef nonnull align 8 dereferenceable(888) %0) #1 comdat align 2 {
  %2 = alloca ptr, align 8
  store ptr %0, ptr %2, align 8
  %3 = load ptr, ptr %2, align 8
  %4 = getelementptr inbounds %class.Thread, ptr %3, i32 0, i32 17
  %5 = load ptr, ptr %4, align 8
  ret ptr %5
}

; Function Attrs: mustprogress nounwind uwtable
define linkonce_odr hidden noundef ptr @_ZN6Thread15current_or_nullEv() #1 comdat align 2 {
  %1 = call align 8 ptr @llvm.threadlocal.address.p0(ptr align 8 @_ZN6Thread12_thr_currentE)
  %2 = load ptr, ptr %1, align 8
  ret ptr %2
}

; Function Attrs: mustprogress nounwind uwtable
define linkonce_odr hidden void @_ZN6HandleC2EP6ThreadP7oopDesc(ptr noundef nonnull align 8 dereferenceable(8) %0, ptr noundef %1, ptr noundef %2) unnamed_addr #1 comdat align 2 {
  %4 = alloca ptr, align 8
  %5 = alloca ptr, align 8
  %6 = alloca ptr, align 8
  store ptr %0, ptr %4, align 8
  store ptr %1, ptr %5, align 8
  store ptr %2, ptr %6, align 8
  %7 = load ptr, ptr %4, align 8
  %8 = load ptr, ptr %6, align 8
  %9 = icmp eq ptr %8, null
  br i1 %9, label %10, label %12

10:                                               ; preds = %3
  %11 = getelementptr inbounds %class.Handle, ptr %7, i32 0, i32 0
  store ptr null, ptr %11, align 8
  br label %18

12:                                               ; preds = %3
  %13 = load ptr, ptr %5, align 8
  %14 = call noundef ptr @_ZNK6Thread11handle_areaEv(ptr noundef nonnull align 8 dereferenceable(888) %13)
  %15 = load ptr, ptr %6, align 8
  %16 = call noundef ptr @_ZN10HandleArea15allocate_handleEP7oopDesc(ptr noundef nonnull align 8 dereferenceable(56) %14, ptr noundef %15)
  %17 = getelementptr inbounds %class.Handle, ptr %7, i32 0, i32 0
  store ptr %16, ptr %17, align 8
  br label %18

18:                                               ; preds = %12, %10
  ret void
}

; Function Attrs: mustprogress nounwind uwtable
define linkonce_odr hidden noundef ptr @_ZN6Thread7currentEv() #1 comdat align 2 {
  %1 = alloca ptr, align 8
  %2 = call noundef ptr @_ZN6Thread15current_or_nullEv()
  store ptr %2, ptr %1, align 8
  %3 = load ptr, ptr %1, align 8
  ret ptr %3
}

; Function Attrs: mustprogress nounwind uwtable
define linkonce_odr hidden void @_ZN6HandleC2Ev(ptr noundef nonnull align 8 dereferenceable(8) %0) unnamed_addr #1 comdat align 2 {
  %2 = alloca ptr, align 8
  store ptr %0, ptr %2, align 8
  %3 = load ptr, ptr %2, align 8
  %4 = getelementptr inbounds %class.Handle, ptr %3, i32 0, i32 0
  store ptr null, ptr %4, align 8
  ret void
}

; Function Attrs: mustprogress nounwind uwtable
define hidden void @_ZN11MonitorInfoC2EP7oopDescP9BasicLockbb(ptr noundef nonnull align 8 dereferenceable(26) %0, ptr noundef %1, ptr noundef %2, i1 noundef zeroext %3, i1 noundef zeroext %4) unnamed_addr #1 align 2 {
  %6 = alloca ptr, align 8
  %7 = alloca ptr, align 8
  %8 = alloca ptr, align 8
  %9 = alloca i8, align 1
  %10 = alloca i8, align 1
  %11 = alloca ptr, align 8
  %12 = alloca %class.Handle, align 8
  %13 = alloca %class.Handle, align 8
  %14 = alloca %class.Handle, align 8
  %15 = alloca %class.Handle, align 8
  store ptr %0, ptr %6, align 8
  store ptr %1, ptr %7, align 8
  store ptr %2, ptr %8, align 8
  %16 = zext i1 %3 to i8
  store i8 %16, ptr %9, align 1
  %17 = zext i1 %4 to i8
  store i8 %17, ptr %10, align 1
  %18 = load ptr, ptr %6, align 8
  %19 = getelementptr inbounds %class.MonitorInfo, ptr %18, i32 0, i32 0
  call void @_ZN6HandleC2Ev(ptr noundef nonnull align 8 dereferenceable(8) %19)
  %20 = getelementptr inbounds %class.MonitorInfo, ptr %18, i32 0, i32 2
  call void @_ZN6HandleC2Ev(ptr noundef nonnull align 8 dereferenceable(8) %20)
  %21 = call noundef ptr @_ZN6Thread7currentEv()
  store ptr %21, ptr %11, align 8
  %22 = load i8, ptr %10, align 1
  %23 = trunc i8 %22 to i1
  br i1 %23, label %29, label %24

24:                                               ; preds = %5
  %25 = load ptr, ptr %11, align 8
  %26 = load ptr, ptr %7, align 8
  call void @_ZN6HandleC2EP6ThreadP7oopDesc(ptr noundef nonnull align 8 dereferenceable(8) %12, ptr noundef %25, ptr noundef %26)
  %27 = getelementptr inbounds %class.MonitorInfo, ptr %18, i32 0, i32 0
  call void @llvm.memcpy.p0.p0.i64(ptr align 8 %27, ptr align 8 %12, i64 8, i1 false)
  call void @_ZN6HandleC2Ev(ptr noundef nonnull align 8 dereferenceable(8) %13)
  %28 = getelementptr inbounds %class.MonitorInfo, ptr %18, i32 0, i32 2
  call void @llvm.memcpy.p0.p0.i64(ptr align 8 %28, ptr align 8 %13, i64 8, i1 false)
  br label %34

29:                                               ; preds = %5
  call void @_ZN6HandleC2Ev(ptr noundef nonnull align 8 dereferenceable(8) %14)
  %30 = getelementptr inbounds %class.MonitorInfo, ptr %18, i32 0, i32 0
  call void @llvm.memcpy.p0.p0.i64(ptr align 8 %30, ptr align 8 %14, i64 8, i1 false)
  %31 = load ptr, ptr %11, align 8
  %32 = load ptr, ptr %7, align 8
  call void @_ZN6HandleC2EP6ThreadP7oopDesc(ptr noundef nonnull align 8 dereferenceable(8) %15, ptr noundef %31, ptr noundef %32)
  %33 = getelementptr inbounds %class.MonitorInfo, ptr %18, i32 0, i32 2
  call void @llvm.memcpy.p0.p0.i64(ptr align 8 %33, ptr align 8 %15, i64 8, i1 false)
  br label %34

34:                                               ; preds = %29, %24
  %35 = load ptr, ptr %8, align 8
  %36 = getelementptr inbounds %class.MonitorInfo, ptr %18, i32 0, i32 1
  store ptr %35, ptr %36, align 8
  %37 = load i8, ptr %9, align 1
  %38 = trunc i8 %37 to i1
  %39 = getelementptr inbounds %class.MonitorInfo, ptr %18, i32 0, i32 3
  %40 = zext i1 %38 to i8
  store i8 %40, ptr %39, align 8
  %41 = load i8, ptr %10, align 1
  %42 = trunc i8 %41 to i1
  %43 = getelementptr inbounds %class.MonitorInfo, ptr %18, i32 0, i32 4
  %44 = zext i1 %42 to i8
  store i8 %44, ptr %43, align 1
  ret void
}