; Function Attrs: mustprogress nounwind uwtable
define hidden void @_ZN11MonitorInfoC2EP7oopDescP9BasicLockbb(ptr nocapture noundef nonnull writeonly align 8 dereferenceable(26) %0, ptr noundef %1, ptr noundef %2, i1 noundef zeroext %3, i1 noundef zeroext %4) unnamed_addr #0 align 2 {
  store ptr null, ptr %0, align 8
  %6 = getelementptr inbounds i8, ptr %0, i64 16
  store ptr null, ptr %6, align 8
  %7 = tail call align 8 ptr @llvm.threadlocal.address.p0(ptr align 8 @_ZN6Thread12_thr_currentE)
  %8 = load ptr, ptr %7, align 8
  br i1 %4, label %25, label %9

9:                                                ; preds = %5
  %10 = icmp eq ptr %1, null
  br i1 %10, label %_ZN6HandleC2EP6ThreadP7oopDesc.exit, label %11

11:                                               ; preds = %9
  %12 = getelementptr inbounds i8, ptr %8, i64 808
  %13 = load ptr, ptr %12, align 8
  %14 = getelementptr inbounds i8, ptr %13, i64 40
  %15 = load ptr, ptr %14, align 8
  %16 = getelementptr inbounds i8, ptr %13, i64 32
  %17 = load ptr, ptr %16, align 8
  %18 = ptrtoint ptr %15 to i64
  %19 = ptrtoint ptr %17 to i64
  %20 = sub i64 %18, %19
  %.not.i.i.i.i = icmp ult i64 %20, 8
  br i1 %.not.i.i.i.i, label %23, label %21

21:                                               ; preds = %11
  %22 = getelementptr inbounds i8, ptr %17, i64 8
  store ptr %22, ptr %16, align 8
  br label %_ZN10HandleArea15allocate_handleEP7oopDesc.exit.i

23:                                               ; preds = %11
  %24 = tail call noundef ptr @_ZN5Arena4growEmN17AllocFailStrategy13AllocFailEnumE(ptr noundef nonnull align 8 dereferenceable(48) %13, i64 noundef 8, i32 noundef 0) #11
  %.pre16 = ptrtoint ptr %24 to i64
  br label %_ZN10HandleArea15allocate_handleEP7oopDesc.exit.i

_ZN10HandleArea15allocate_handleEP7oopDesc.exit.i: ; preds = %23, %21
  %.pre-phi17 = phi i64 [ %.pre16, %23 ], [ %19, %21 ]
  %.0.i.i.i.i = phi ptr [ %24, %23 ], [ %17, %21 ]
  store ptr %1, ptr %.0.i.i.i.i, align 8
  br label %_ZN6HandleC2EP6ThreadP7oopDesc.exit

_ZN6HandleC2EP6ThreadP7oopDesc.exit:              ; preds = %9, %_ZN10HandleArea15allocate_handleEP7oopDesc.exit.i
  %storemerge.i = phi i64 [ %.pre-phi17, %_ZN10HandleArea15allocate_handleEP7oopDesc.exit.i ], [ 0, %9 ]
  store i64 %storemerge.i, ptr %0, align 8
  br label %_ZN6HandleC2EP6ThreadP7oopDesc.exit12

25:                                               ; preds = %5
  store i64 0, ptr %0, align 8
  %26 = icmp eq ptr %1, null
  br i1 %26, label %_ZN6HandleC2EP6ThreadP7oopDesc.exit12, label %27

27:                                               ; preds = %25
  %28 = getelementptr inbounds i8, ptr %8, i64 808
  %29 = load ptr, ptr %28, align 8
  %30 = getelementptr inbounds i8, ptr %29, i64 40
  %31 = load ptr, ptr %30, align 8
  %32 = getelementptr inbounds i8, ptr %29, i64 32
  %33 = load ptr, ptr %32, align 8
  %34 = ptrtoint ptr %31 to i64
  %35 = ptrtoint ptr %33 to i64
  %36 = sub i64 %34, %35
  %.not.i.i.i.i8 = icmp ult i64 %36, 8
  br i1 %.not.i.i.i.i8, label %39, label %37

37:                                               ; preds = %27
  %38 = getelementptr inbounds i8, ptr %33, i64 8
  store ptr %38, ptr %32, align 8
  br label %_ZN10HandleArea15allocate_handleEP7oopDesc.exit.i9

39:                                               ; preds = %27
  %40 = tail call noundef ptr @_ZN5Arena4growEmN17AllocFailStrategy13AllocFailEnumE(ptr noundef nonnull align 8 dereferenceable(48) %29, i64 noundef 8, i32 noundef 0) #11
  %.pre = ptrtoint ptr %40 to i64
  br label %_ZN10HandleArea15allocate_handleEP7oopDesc.exit.i9

_ZN10HandleArea15allocate_handleEP7oopDesc.exit.i9: ; preds = %39, %37
  %.pre-phi = phi i64 [ %.pre, %39 ], [ %35, %37 ]
  %.0.i.i.i.i10 = phi ptr [ %40, %39 ], [ %33, %37 ]
  store ptr %1, ptr %.0.i.i.i.i10, align 8
  br label %_ZN6HandleC2EP6ThreadP7oopDesc.exit12

_ZN6HandleC2EP6ThreadP7oopDesc.exit12:            ; preds = %_ZN10HandleArea15allocate_handleEP7oopDesc.exit.i9, %25, %_ZN6HandleC2EP6ThreadP7oopDesc.exit
  %storemerge.in.sroa.speculated = phi i64 [ 0, %_ZN6HandleC2EP6ThreadP7oopDesc.exit ], [ %.pre-phi, %_ZN10HandleArea15allocate_handleEP7oopDesc.exit.i9 ], [ 0, %25 ]
  store i64 %storemerge.in.sroa.speculated, ptr %6, align 8
  %41 = zext i1 %4 to i8
  %42 = zext i1 %3 to i8
  %43 = getelementptr inbounds i8, ptr %0, i64 8
  store ptr %2, ptr %43, align 8
  %44 = getelementptr inbounds i8, ptr %0, i64 24
  store i8 %42, ptr %44, align 8
  %45 = getelementptr inbounds i8, ptr %0, i64 25
  store i8 %41, ptr %45, align 1
  ret void
}